; Function Attrs: mustprogress uwtable
define hidden noundef zeroext i1 @_ZN6Assimp12PbrtExporter19TextureHasAlphaMaskERKNSt7__cxx1112basic_stringIcSt11char_traitsIcESaIcEEE(ptr noundef nonnull readonly align 8 captures(none) dereferenceable(32) %0) local_unnamed_addr #3 align 2 {
  %2 = alloca i32, align 4
  %3 = alloca i32, align 4
  %4 = alloca i32, align 4
  call void @llvm.lifetime.start.p0(i64 4, ptr nonnull %2) #27
  call void @llvm.lifetime.start.p0(i64 4, ptr nonnull %3) #27
  call void @llvm.lifetime.start.p0(i64 4, ptr nonnull %4) #27
  %5 = load ptr, ptr %0, align 8
  %6 = call ptr @assimp_stbi_load(ptr noundef %5, ptr noundef nonnull %2, ptr noundef nonnull %3, ptr noundef nonnull %4, i32 noundef 0)
  %.not = icmp eq ptr %6, null
  br i1 %.not, label %7, label %13

7:                                                ; preds = %1
  %8 = load ptr, ptr %0, align 8
  %9 = getelementptr inbounds nuw i8, ptr %0, i64 8
  %10 = load i64, ptr %9, align 8
  %11 = call noundef nonnull align 8 dereferenceable(8) ptr @_ZSt16__ostream_insertIcSt11char_traitsIcEERSt13basic_ostreamIT_T0_ES6_PKS3_l(ptr noundef nonnull align 8 dereferenceable(8) @_ZSt4cerr, ptr noundef %8, i64 noundef %10)
  %12 = call noundef nonnull align 8 dereferenceable(8) ptr @_ZSt16__ostream_insertIcSt11char_traitsIcEERSt13basic_ostreamIT_T0_ES6_PKS3_l(ptr noundef nonnull align 8 dereferenceable(8) %11, ptr noundef nonnull @.str.67, i64 noundef 115)
  br label %57

13:                                               ; preds = %1
  %14 = load i32, ptr %4, align 4
  switch i32 %14, label %48 [
    i32 1, label %.preheader
    i32 2, label %.preheader37
    i32 3, label %.loopexit
    i32 4, label %.preheader40
  ]

.preheader40:                                     ; preds = %13
  %15 = load i32, ptr %3, align 4
  %16 = icmp sgt i32 %15, 0
  br i1 %16, label %.preheader39.lr.ph, label %.loopexit

.preheader39.lr.ph:                               ; preds = %.preheader40
  %17 = load i32, ptr %2, align 4
  %18 = icmp sgt i32 %17, 0
  br i1 %18, label %.preheader39.us.preheader, label %.loopexit

.preheader39.us.preheader:                        ; preds = %.preheader39.lr.ph
  %19 = zext nneg i32 %17 to i64
  %wide.trip.count67 = zext nneg i32 %15 to i64
  br label %.preheader39.us

.preheader39.us:                                  ; preds = %.preheader39.us.preheader, %._crit_edge.us
  %indvars.iv65 = phi i64 [ 0, %.preheader39.us.preheader ], [ %indvars.iv.next66, %._crit_edge.us ]
  %.445.us = phi i1 [ false, %.preheader39.us.preheader ], [ %.5.us, %._crit_edge.us ]
  %20 = mul nuw nsw i64 %indvars.iv65, %19
  br label %22

21:                                               ; preds = %22
  %indvars.iv.next = add nuw nsw i64 %indvars.iv, 1
  %exitcond.not = icmp eq i64 %indvars.iv.next, %19
  br i1 %exitcond.not, label %._crit_edge.us, label %22, !llvm.loop !79

22:                                               ; preds = %.preheader39.us, %21
  %indvars.iv = phi i64 [ 0, %.preheader39.us ], [ %indvars.iv.next, %21 ]
  %23 = add nuw nsw i64 %20, %indvars.iv
  %24 = shl i64 %23, 2
  %25 = and i64 %24, 4294967292
  %26 = or disjoint i64 %25, 3
  %27 = getelementptr inbounds nuw i8, ptr %6, i64 %26
  %28 = load i8, ptr %27, align 1
  %.not33.us = icmp eq i8 %28, -1
  br i1 %.not33.us, label %21, label %._crit_edge.us

._crit_edge.us:                                   ; preds = %21, %22
  %.5.us = phi i1 [ true, %22 ], [ %.445.us, %21 ]
  %indvars.iv.next66 = add nuw nsw i64 %indvars.iv65, 1
  %exitcond68.not = icmp eq i64 %indvars.iv.next66, %wide.trip.count67
  br i1 %exitcond68.not, label %.loopexit, label %.preheader39.us, !llvm.loop !80

.preheader37:                                     ; preds = %13
  %29 = load i32, ptr %3, align 4
  %30 = icmp sgt i32 %29, 0
  br i1 %30, label %.preheader36.lr.ph, label %.loopexit

.preheader36.lr.ph:                               ; preds = %.preheader37
  %31 = load i32, ptr %2, align 4
  %32 = icmp sgt i32 %31, 0
  br i1 %32, label %.preheader36.us.preheader, label %.loopexit

.preheader36.us.preheader:                        ; preds = %.preheader36.lr.ph
  %33 = zext nneg i32 %31 to i64
  %wide.trip.count76 = zext nneg i32 %29 to i64
  br label %.preheader36.us

.preheader36.us:                                  ; preds = %.preheader36.us.preheader, %._crit_edge.us54
  %indvars.iv74 = phi i64 [ 0, %.preheader36.us.preheader ], [ %indvars.iv.next75, %._crit_edge.us54 ]
  %.251.us = phi i1 [ false, %.preheader36.us.preheader ], [ %.3.us, %._crit_edge.us54 ]
  %34 = mul nuw nsw i64 %indvars.iv74, %33
  br label %36

35:                                               ; preds = %36
  %indvars.iv.next70 = add nuw nsw i64 %indvars.iv69, 1
  %exitcond73.not = icmp eq i64 %indvars.iv.next70, %33
  br i1 %exitcond73.not, label %._crit_edge.us54, label %36, !llvm.loop !81

36:                                               ; preds = %.preheader36.us, %35
  %indvars.iv69 = phi i64 [ 0, %.preheader36.us ], [ %indvars.iv.next70, %35 ]
  %37 = add nuw nsw i64 %34, %indvars.iv69
  %38 = shl nuw nsw i64 %37, 1
  %39 = or disjoint i64 %38, 1
  %40 = getelementptr inbounds nuw i8, ptr %6, i64 %39
  %41 = load i8, ptr %40, align 1
  %.not34.us = icmp eq i8 %41, -1
  br i1 %.not34.us, label %35, label %._crit_edge.us54

._crit_edge.us54:                                 ; preds = %35, %36
  %.3.us = phi i1 [ true, %36 ], [ %.251.us, %35 ]
  %indvars.iv.next75 = add nuw nsw i64 %indvars.iv74, 1
  %exitcond77.not = icmp eq i64 %indvars.iv.next75, %wide.trip.count76
  br i1 %exitcond77.not, label %.loopexit, label %.preheader36.us, !llvm.loop !82

.preheader:                                       ; preds = %13
  %42 = load i32, ptr %2, align 4
  %43 = load i32, ptr %3, align 4
  %44 = mul nsw i32 %43, %42
  %45 = icmp sgt i32 %44, 0
  br i1 %45, label %.lr.ph.preheader, label %.loopexit

.lr.ph.preheader:                                 ; preds = %.preheader
  %wide.trip.count81 = zext nneg i32 %44 to i64
  br label %.lr.ph

.lr.ph:                                           ; preds = %.lr.ph, %.lr.ph.preheader
  %indvars.iv78 = phi i64 [ 0, %.lr.ph.preheader ], [ %indvars.iv.next79, %.lr.ph ]
  %46 = getelementptr inbounds nuw i8, ptr %6, i64 %indvars.iv78
  %47 = load i8, ptr %46, align 1
  %.not35.not = icmp ne i8 %47, -1
  %indvars.iv.next79 = add nuw nsw i64 %indvars.iv78, 1
  %exitcond82.not = icmp eq i64 %indvars.iv.next79, %wide.trip.count81
  %or.cond = select i1 %.not35.not, i1 true, i1 %exitcond82.not
  br i1 %or.cond, label %.loopexit, label %.lr.ph, !llvm.loop !83

48:                                               ; preds = %13
  %49 = load ptr, ptr %0, align 8
  %50 = getelementptr inbounds nuw i8, ptr %0, i64 8
  %51 = load i64, ptr %50, align 8
  %52 = call noundef nonnull align 8 dereferenceable(8) ptr @_ZSt16__ostream_insertIcSt11char_traitsIcEERSt13basic_ostreamIT_T0_ES6_PKS3_l(ptr noundef nonnull align 8 dereferenceable(8) @_ZSt4cerr, ptr noundef %49, i64 noundef %51)
  %53 = call noundef nonnull align 8 dereferenceable(8) ptr @_ZSt16__ostream_insertIcSt11char_traitsIcEERSt13basic_ostreamIT_T0_ES6_PKS3_l(ptr noundef nonnull align 8 dereferenceable(8) %52, ptr noundef nonnull @.str.68, i64 noundef 39)
  %54 = load i32, ptr %4, align 4
  %55 = call noundef nonnull align 8 dereferenceable(8) ptr @_ZNSolsEi(ptr noundef nonnull align 8 dereferenceable(8) %52, i32 noundef %54)
  %56 = call noundef nonnull align 8 dereferenceable(8) ptr @_ZSt16__ostream_insertIcSt11char_traitsIcEERSt13basic_ostreamIT_T0_ES6_PKS3_l(ptr noundef nonnull align 8 dereferenceable(8) %55, ptr noundef nonnull @.str.69, i64 noundef 2)
  br label %.loopexit

.loopexit:                                        ; preds = %._crit_edge.us, %._crit_edge.us54, %.lr.ph, %.preheader36.lr.ph, %.preheader39.lr.ph, %.preheader40, %.preheader37, %.preheader, %48, %13
  %.028 = phi i1 [ false, %48 ], [ false, %13 ], [ false, %.preheader ], [ false, %.preheader37 ], [ false, %.preheader40 ], [ false, %.preheader39.lr.ph ], [ false, %.preheader36.lr.ph ], [ %.not35.not, %.lr.ph ], [ %.3.us, %._crit_edge.us54 ], [ %.5.us, %._crit_edge.us ]
  call void @assimp_stbi_image_free(ptr noundef nonnull %6)
  br label %57

57:                                               ; preds = %.loopexit, %7
  %.029 = phi i1 [ %.028, %.loopexit ], [ false, %7 ]
  call void @llvm.lifetime.end.p0(i64 4, ptr nonnull %4) #27
  call void @llvm.lifetime.end.p0(i64 4, ptr nonnull %3) #27
  call void @llvm.lifetime.end.p0(i64 4, ptr nonnull %2) #27
  ret i1 %.029
}